
stream-64-stride-4.riscv:     file format elf64-littleriscv


Disassembly of section .text:

0000000000000000 <_start>:
   0:	00000093          	li	ra,0
   4:	00000113          	li	sp,0
   8:	00000193          	li	gp,0
   c:	00000213          	li	tp,0
  10:	00000293          	li	t0,0
  14:	00000313          	li	t1,0
  18:	00000393          	li	t2,0
  1c:	00000413          	li	s0,0
  20:	00000493          	li	s1,0
  24:	00000513          	li	a0,0
  28:	00000593          	li	a1,0
  2c:	00000613          	li	a2,0
  30:	00000693          	li	a3,0
  34:	00000713          	li	a4,0
  38:	00000793          	li	a5,0
  3c:	00000813          	li	a6,0
  40:	00000893          	li	a7,0
  44:	00000913          	li	s2,0
  48:	00000993          	li	s3,0
  4c:	00000a13          	li	s4,0
  50:	00000a93          	li	s5,0
  54:	00000b13          	li	s6,0
  58:	00000b93          	li	s7,0
  5c:	00000c13          	li	s8,0
  60:	00000c93          	li	s9,0
  64:	00000d13          	li	s10,0
  68:	00000d93          	li	s11,0
  6c:	00000e13          	li	t3,0
  70:	00000e93          	li	t4,0
  74:	00000f13          	li	t5,0
  78:	00000f93          	li	t6,0
  7c:	00004117          	auipc	sp,0x4
  80:	80c10113          	addi	sp,sp,-2036 # 3888 <results_data.0>
  84:	248000ef          	jal	ra,2cc <main>
  88:	2d80006f          	j	360 <end>

000000000000008c <copy>:
  8c:	02a05263          	blez	a0,b0 <copy+0x24>
  90:	00159713          	slli	a4,a1,0x1
  94:	00000793          	li	a5,0
  98:	00061803          	lh	a6,0(a2)
  9c:	01069023          	sh	a6,0(a3)
  a0:	00f587bb          	addw	a5,a1,a5
  a4:	00e60633          	add	a2,a2,a4
  a8:	00e686b3          	add	a3,a3,a4
  ac:	fea7c6e3          	blt	a5,a0,98 <copy+0xc>
  b0:	00008067          	ret

00000000000000b4 <setStats>:
  b4:	00008067          	ret

00000000000000b8 <memcpy>:
  b8:	00b567b3          	or	a5,a0,a1
  bc:	00c7e7b3          	or	a5,a5,a2
  c0:	0077f793          	andi	a5,a5,7
  c4:	00c506b3          	add	a3,a0,a2
  c8:	02078463          	beqz	a5,f0 <memcpy+0x38>
  cc:	00c58633          	add	a2,a1,a2
  d0:	00050793          	mv	a5,a0
  d4:	02d57e63          	bgeu	a0,a3,110 <memcpy+0x58>
  d8:	0005c703          	lbu	a4,0(a1)
  dc:	00158593          	addi	a1,a1,1
  e0:	00178793          	addi	a5,a5,1
  e4:	fee78fa3          	sb	a4,-1(a5)
  e8:	fec598e3          	bne	a1,a2,d8 <memcpy+0x20>
  ec:	00008067          	ret
  f0:	fed57ee3          	bgeu	a0,a3,ec <memcpy+0x34>
  f4:	00050793          	mv	a5,a0
  f8:	0005b703          	ld	a4,0(a1)
  fc:	00878793          	addi	a5,a5,8
 100:	00858593          	addi	a1,a1,8
 104:	fee7bc23          	sd	a4,-8(a5)
 108:	fed7e8e3          	bltu	a5,a3,f8 <memcpy+0x40>
 10c:	00008067          	ret
 110:	00008067          	ret

0000000000000114 <memset>:
 114:	ff010113          	addi	sp,sp,-16
 118:	00c567b3          	or	a5,a0,a2
 11c:	00813023          	sd	s0,0(sp)
 120:	00113423          	sd	ra,8(sp)
 124:	0077f793          	andi	a5,a5,7
 128:	00050413          	mv	s0,a0
 12c:	00c50733          	add	a4,a0,a2
 130:	02078263          	beqz	a5,154 <memset+0x40>
 134:	00e57663          	bgeu	a0,a4,140 <memset+0x2c>
 138:	0ff5f593          	zext.b	a1,a1
 13c:	fd9ff0ef          	jal	ra,114 <memset>
 140:	00813083          	ld	ra,8(sp)
 144:	00040513          	mv	a0,s0
 148:	00013403          	ld	s0,0(sp)
 14c:	01010113          	addi	sp,sp,16
 150:	00008067          	ret
 154:	0ff5f593          	zext.b	a1,a1
 158:	00001797          	auipc	a5,0x1
 15c:	6287b783          	ld	a5,1576(a5) # 1780 <verify_data+0x200>
 160:	02f585b3          	mul	a1,a1,a5
 164:	fce57ee3          	bgeu	a0,a4,140 <memset+0x2c>
 168:	00050793          	mv	a5,a0
 16c:	00878793          	addi	a5,a5,8
 170:	feb7bc23          	sd	a1,-8(a5)
 174:	fee7ece3          	bltu	a5,a4,16c <memset+0x58>
 178:	00813083          	ld	ra,8(sp)
 17c:	00040513          	mv	a0,s0
 180:	00013403          	ld	s0,0(sp)
 184:	01010113          	addi	sp,sp,16
 188:	00008067          	ret

000000000000018c <strlen>:
 18c:	00054783          	lbu	a5,0(a0)
 190:	00078e63          	beqz	a5,1ac <strlen+0x20>
 194:	00050793          	mv	a5,a0
 198:	0017c703          	lbu	a4,1(a5)
 19c:	00178793          	addi	a5,a5,1
 1a0:	fe071ce3          	bnez	a4,198 <strlen+0xc>
 1a4:	40a78533          	sub	a0,a5,a0
 1a8:	00008067          	ret
 1ac:	00000513          	li	a0,0
 1b0:	00008067          	ret

00000000000001b4 <strnlen>:
 1b4:	00b506b3          	add	a3,a0,a1
 1b8:	00050793          	mv	a5,a0
 1bc:	00059863          	bnez	a1,1cc <strnlen+0x18>
 1c0:	0240006f          	j	1e4 <strnlen+0x30>
 1c4:	00178793          	addi	a5,a5,1
 1c8:	00f68a63          	beq	a3,a5,1dc <strnlen+0x28>
 1cc:	0007c703          	lbu	a4,0(a5)
 1d0:	fe071ae3          	bnez	a4,1c4 <strnlen+0x10>
 1d4:	40a78533          	sub	a0,a5,a0
 1d8:	00008067          	ret
 1dc:	40a68533          	sub	a0,a3,a0
 1e0:	00008067          	ret
 1e4:	00000513          	li	a0,0
 1e8:	00008067          	ret

00000000000001ec <strcmp>:
 1ec:	00054783          	lbu	a5,0(a0)
 1f0:	00158593          	addi	a1,a1,1
 1f4:	00150513          	addi	a0,a0,1
 1f8:	fff5c703          	lbu	a4,-1(a1)
 1fc:	00078a63          	beqz	a5,210 <strcmp+0x24>
 200:	fee786e3          	beq	a5,a4,1ec <strcmp>
 204:	0007851b          	sext.w	a0,a5
 208:	40e5053b          	subw	a0,a0,a4
 20c:	00008067          	ret
 210:	00000513          	li	a0,0
 214:	ff5ff06f          	j	208 <strcmp+0x1c>

0000000000000218 <strcpy>:
 218:	00050793          	mv	a5,a0
 21c:	0005c703          	lbu	a4,0(a1)
 220:	00178793          	addi	a5,a5,1
 224:	00158593          	addi	a1,a1,1
 228:	fee78fa3          	sb	a4,-1(a5)
 22c:	fe0718e3          	bnez	a4,21c <strcpy+0x4>
 230:	00008067          	ret

0000000000000234 <atol>:
 234:	00054703          	lbu	a4,0(a0)
 238:	02000693          	li	a3,32
 23c:	00050793          	mv	a5,a0
 240:	00d71863          	bne	a4,a3,250 <atol+0x1c>
 244:	0017c703          	lbu	a4,1(a5)
 248:	00178793          	addi	a5,a5,1
 24c:	fed70ce3          	beq	a4,a3,244 <atol+0x10>
 250:	02d00693          	li	a3,45
 254:	06d70063          	beq	a4,a3,2b4 <atol+0x80>
 258:	02b00693          	li	a3,43
 25c:	04d70063          	beq	a4,a3,29c <atol+0x68>
 260:	0007c683          	lbu	a3,0(a5)
 264:	00000593          	li	a1,0
 268:	04068263          	beqz	a3,2ac <atol+0x78>
 26c:	00000513          	li	a0,0
 270:	00178793          	addi	a5,a5,1
 274:	00251713          	slli	a4,a0,0x2
 278:	fd06861b          	addiw	a2,a3,-48
 27c:	0007c683          	lbu	a3,0(a5)
 280:	00a70733          	add	a4,a4,a0
 284:	00171713          	slli	a4,a4,0x1
 288:	00e60533          	add	a0,a2,a4
 28c:	fe0692e3          	bnez	a3,270 <atol+0x3c>
 290:	02058063          	beqz	a1,2b0 <atol+0x7c>
 294:	40a00533          	neg	a0,a0
 298:	00008067          	ret
 29c:	0017c683          	lbu	a3,1(a5)
 2a0:	00000593          	li	a1,0
 2a4:	00178793          	addi	a5,a5,1
 2a8:	fc0692e3          	bnez	a3,26c <atol+0x38>
 2ac:	00000513          	li	a0,0
 2b0:	00008067          	ret
 2b4:	0017c683          	lbu	a3,1(a5)
 2b8:	00100593          	li	a1,1
 2bc:	00178793          	addi	a5,a5,1
 2c0:	fa0696e3          	bnez	a3,26c <atol+0x38>
 2c4:	00000513          	li	a0,0
 2c8:	fe9ff06f          	j	2b0 <atol+0x7c>

00000000000002cc <main>:
 2cc:	ff010113          	addi	sp,sp,-16
 2d0:	00003697          	auipc	a3,0x3
 2d4:	5b868693          	addi	a3,a3,1464 # 3888 <results_data.0>
 2d8:	00001617          	auipc	a2,0x1
 2dc:	0a860613          	addi	a2,a2,168 # 1380 <source_data>
 2e0:	00400593          	li	a1,4
 2e4:	10000513          	li	a0,256
 2e8:	00113423          	sd	ra,8(sp)
 2ec:	da1ff0ef          	jal	ra,8c <copy>
 2f0:	00400593          	li	a1,4
 2f4:	10000513          	li	a0,256
 2f8:	00003697          	auipc	a3,0x3
 2fc:	59068693          	addi	a3,a3,1424 # 3888 <results_data.0>
 300:	00001617          	auipc	a2,0x1
 304:	08060613          	addi	a2,a2,128 # 1380 <source_data>
 308:	d85ff0ef          	jal	ra,8c <copy>
 30c:	00003717          	auipc	a4,0x3
 310:	57c70713          	addi	a4,a4,1404 # 3888 <results_data.0>
 314:	00001797          	auipc	a5,0x1
 318:	26c78793          	addi	a5,a5,620 # 1580 <verify_data>
 31c:	00000513          	li	a0,0
 320:	10000593          	li	a1,256
 324:	00c0006f          	j	330 <main+0x64>
 328:	0045051b          	addiw	a0,a0,4
 32c:	02b50463          	beq	a0,a1,354 <main+0x88>
 330:	00075603          	lhu	a2,0(a4)
 334:	0007d683          	lhu	a3,0(a5)
 338:	00870713          	addi	a4,a4,8
 33c:	00878793          	addi	a5,a5,8
 340:	fed604e3          	beq	a2,a3,328 <main+0x5c>
 344:	0015051b          	addiw	a0,a0,1
 348:	00813083          	ld	ra,8(sp)
 34c:	01010113          	addi	sp,sp,16
 350:	00008067          	ret
 354:	00bc6537          	lui	a0,0xbc6
 358:	14e50513          	addi	a0,a0,334 # bc614e <results_data.0+0xbc28c6>
 35c:	fedff06f          	j	348 <main+0x7c>

0000000000000360 <end>:
 360:	00000013          	nop
 364:	00000013          	nop
 368:	00000013          	nop
 36c:	00000013          	nop
 370:	00000013          	nop
 374:	00000013          	nop

0000000000000378 <_last>:
 378:	fe9ff06f          	j	360 <end>
